; Function Attrs: nofree norecurse nosync nounwind memory(argmem: readwrite) uwtable
define hidden void @cfl_subsample_hbd_420_32x8_c(ptr nocapture noundef readonly %0, i32 noundef %1, ptr nocapture noundef writeonly %2) #5 {
  %invariant.op.i = add i32 %1, 1
  %4 = shl i32 %1, 1
  %5 = sext i32 %4 to i64
  %6 = sext i32 %1 to i64
  br label %.preheader.us.i

.preheader.us.i:                                  ; preds = %._crit_edge.us.i, %3
  %.026.us.i = phi ptr [ %27, %._crit_edge.us.i ], [ %0, %3 ]
  %.02125.us.i = phi i32 [ %29, %._crit_edge.us.i ], [ 0, %3 ]
  %.02224.us.i = phi ptr [ %28, %._crit_edge.us.i ], [ %2, %3 ]
  br label %7

7:                                                ; preds = %7, %.preheader.us.i
  %indvars.iv.i = phi i64 [ 0, %.preheader.us.i ], [ %indvars.iv.next.i, %7 ]
  %8 = add nsw i64 %indvars.iv.i, %6
  %9 = getelementptr inbounds i16, ptr %.026.us.i, i64 %indvars.iv.i
  %10 = load i16, ptr %9, align 2
  %11 = or disjoint i64 %indvars.iv.i, 1
  %12 = getelementptr inbounds i16, ptr %.026.us.i, i64 %11
  %13 = load i16, ptr %12, align 2
  %14 = add i16 %13, %10
  %15 = getelementptr inbounds i16, ptr %.026.us.i, i64 %8
  %16 = load i16, ptr %15, align 2
  %17 = add i16 %14, %16
  %18 = trunc nuw nsw i64 %indvars.iv.i to i32
  %.reass.us.i = add i32 %invariant.op.i, %18
  %19 = sext i32 %.reass.us.i to i64
  %20 = getelementptr inbounds i16, ptr %.026.us.i, i64 %19
  %21 = load i16, ptr %20, align 2
  %22 = add i16 %17, %21
  %23 = shl i16 %22, 1
  %24 = lshr exact i64 %indvars.iv.i, 1
  %25 = getelementptr inbounds i16, ptr %.02224.us.i, i64 %24
  store i16 %23, ptr %25, align 2
  %indvars.iv.next.i = add nuw nsw i64 %indvars.iv.i, 2
  %26 = icmp ult i64 %indvars.iv.i, 30
  br i1 %26, label %7, label %._crit_edge.us.i, !llvm.loop !25

._crit_edge.us.i:                                 ; preds = %7
  %27 = getelementptr inbounds i16, ptr %.026.us.i, i64 %5
  %28 = getelementptr inbounds i8, ptr %.02224.us.i, i64 64
  %29 = add nuw nsw i32 %.02125.us.i, 2
  %30 = icmp ult i32 %.02125.us.i, 6
  br i1 %30, label %.preheader.us.i, label %cfl_luma_subsampling_420_hbd_c.exit, !llvm.loop !26

cfl_luma_subsampling_420_hbd_c.exit:              ; preds = %._crit_edge.us.i
  ret void
}